target datalayout = "e-m:e-p270:32:32-p271:32:32-p272:64:64-i64:64-i128:128-f80:128-n8:16:32:64-S128"
target triple = "x86_64-pc-linux-gnu"

%class.Node = type <{ ptr, ptr, ptr, i32, i32, i32, i32, i32, i32, i32, [4 x i8] }>
%class.PhaseIdealLoop = type <{ %class.PhaseTransform, %class.Node_List, ptr, ptr, ptr, i32, [4 x i8], ptr, i8, [7 x i8], %class.Node_List, %class.Node_List, %class.GrowableArray, i32, i32, ptr, ptr, ptr, i32, i8, [3 x i8], i32, i8, [3 x i8] }>
%class.PhaseTransform = type { ptr, %class.Phase }
%class.Phase = type { i32, ptr }
%class.Node_List = type <{ %class.Node_Array, i32, [4 x i8] }>
%class.Node_Array = type { ptr, i32, ptr }
%class.GrowableArray = type { %class.GrowableArrayWithAllocator, %class.GrowableArrayMetadata }
%class.GrowableArrayWithAllocator = type { %class.GrowableArrayView }
%class.GrowableArrayView = type { %class.GrowableArrayBase, ptr }
%class.GrowableArrayBase = type { i32, i32 }
%class.GrowableArrayMetadata = type { i64 }
%class.IdealLoopTree = type <{ ptr, ptr, ptr, ptr, ptr, ptr, i32, i32, %class.Node_List, i16, i8, [5 x i8], ptr, ptr, i8, [7 x i8] }>
%class.Predicates = type { ptr, %class.PredicateBlock, %class.PredicateBlock, %class.PredicateBlock, ptr }
%class.PredicateBlock = type { [8 x i8], %class.ParsePredicate, ptr }
%class.ParsePredicate = type { ptr, ptr, ptr }
%class.LoopTreeIterator = type { ptr, ptr }

@UseLoopPredicate = external global i8, align 1
@UseProfiledLoopPredicate = external global i8, align 1

; Function Attrs: mustprogress nounwind uwtable
define linkonce_odr hidden noundef ptr @_ZNK14ParsePredicate12success_projEv(ptr noundef nonnull align 8 dereferenceable(24) %0) #1 comdat align 2 {
  %2 = alloca ptr, align 8
  store ptr %0, ptr %2, align 8
  %3 = load ptr, ptr %2, align 8
  %4 = getelementptr inbounds %class.ParsePredicate, ptr %3, i32 0, i32 0
  %5 = load ptr, ptr %4, align 8
  ret ptr %5
}

; Function Attrs: mustprogress nounwind uwtable
define linkonce_odr hidden noundef zeroext i1 @_ZNK14ParsePredicate8is_validEv(ptr noundef nonnull align 8 dereferenceable(24) %0) #1 comdat align 2 {
  %2 = alloca ptr, align 8
  store ptr %0, ptr %2, align 8
  %3 = load ptr, ptr %2, align 8
  %4 = getelementptr inbounds %class.ParsePredicate, ptr %3, i32 0, i32 1
  %5 = load ptr, ptr %4, align 8
  %6 = icmp ne ptr %5, null
  ret i1 %6
}

; Function Attrs: mustprogress nounwind uwtable
define linkonce_odr hidden noundef ptr @_ZNK10Predicates20loop_predicate_blockEv(ptr noundef nonnull align 8 dereferenceable(136) %0) #1 comdat align 2 {
  %2 = alloca ptr, align 8
  store ptr %0, ptr %2, align 8
  %3 = load ptr, ptr %2, align 8
  %4 = getelementptr inbounds %class.Predicates, ptr %3, i32 0, i32 3
  ret ptr %4
}

; Function Attrs: mustprogress nounwind uwtable
define linkonce_odr hidden noundef ptr @_ZNK14PredicateBlock28parse_predicate_success_projEv(ptr noundef nonnull align 8 dereferenceable(40) %0) #1 comdat align 2 {
  %2 = alloca ptr, align 8
  store ptr %0, ptr %2, align 8
  %3 = load ptr, ptr %2, align 8
  %4 = getelementptr inbounds %class.PredicateBlock, ptr %3, i32 0, i32 1
  %5 = call noundef ptr @_ZNK14ParsePredicate12success_projEv(ptr noundef nonnull align 8 dereferenceable(24) %4)
  ret ptr %5
}

; Function Attrs: mustprogress nounwind uwtable
define linkonce_odr hidden noundef zeroext i1 @_ZNK14PredicateBlock19has_parse_predicateEv(ptr noundef nonnull align 8 dereferenceable(40) %0) #1 comdat align 2 {
  %2 = alloca ptr, align 8
  store ptr %0, ptr %2, align 8
  %3 = load ptr, ptr %2, align 8
  %4 = getelementptr inbounds %class.PredicateBlock, ptr %3, i32 0, i32 1
  %5 = call noundef zeroext i1 @_ZNK14ParsePredicate8is_validEv(ptr noundef nonnull align 8 dereferenceable(24) %4)
  ret i1 %5
}

; Function Attrs: mustprogress nounwind uwtable
define linkonce_odr hidden noundef ptr @_ZNK10Predicates29profiled_loop_predicate_blockEv(ptr noundef nonnull align 8 dereferenceable(136) %0) #1 comdat align 2 {
  %2 = alloca ptr, align 8
  store ptr %0, ptr %2, align 8
  %3 = load ptr, ptr %2, align 8
  %4 = getelementptr inbounds %class.Predicates, ptr %3, i32 0, i32 2
  ret ptr %4
}

; Function Attrs: mustprogress nounwind uwtable
define linkonce_odr hidden noundef ptr @_ZNK4Node2inEj(ptr noundef nonnull align 8 dereferenceable(52) %0, i32 noundef %1) #1 comdat align 2 {
  %3 = alloca ptr, align 8
  %4 = alloca i32, align 4
  store ptr %0, ptr %3, align 8
  store i32 %1, ptr %4, align 4
  %5 = load ptr, ptr %3, align 8
  %6 = getelementptr inbounds %class.Node, ptr %5, i32 0, i32 1
  %7 = load ptr, ptr %6, align 8
  %8 = load i32, ptr %4, align 4
  %9 = zext i32 %8 to i64
  %10 = getelementptr inbounds ptr, ptr %7, i64 %9
  %11 = load ptr, ptr %10, align 8
  ret ptr %11
}

; Function Attrs: mustprogress nounwind uwtable
define linkonce_odr hidden noundef ptr @_ZNK4Node7as_LoopEv(ptr noundef nonnull align 8 dereferenceable(52) %0) #1 comdat align 2 {
  %2 = alloca ptr, align 8
  store ptr %0, ptr %2, align 8
  %3 = load ptr, ptr %2, align 8
  ret ptr %3
}

; Function Attrs: mustprogress nounwind uwtable
define hidden void @_ZN16LoopTreeIterator4nextEv(ptr noundef nonnull align 8 dereferenceable(16) %0) #1 align 2 {
  %2 = alloca ptr, align 8
  store ptr %0, ptr %2, align 8
  %3 = load ptr, ptr %2, align 8
  %4 = getelementptr inbounds %class.LoopTreeIterator, ptr %3, i32 0, i32 1
  %5 = load ptr, ptr %4, align 8
  %6 = getelementptr inbounds %class.IdealLoopTree, ptr %5, i32 0, i32 2
  %7 = load ptr, ptr %6, align 8
  %8 = icmp ne ptr %7, null
  br i1 %8, label %9, label %15

9:                                                ; preds = %1
  %10 = getelementptr inbounds %class.LoopTreeIterator, ptr %3, i32 0, i32 1
  %11 = load ptr, ptr %10, align 8
  %12 = getelementptr inbounds %class.IdealLoopTree, ptr %11, i32 0, i32 2
  %13 = load ptr, ptr %12, align 8
  %14 = getelementptr inbounds %class.LoopTreeIterator, ptr %3, i32 0, i32 1
  store ptr %13, ptr %14, align 8
  br label %64

15:                                               ; preds = %1
  %16 = getelementptr inbounds %class.LoopTreeIterator, ptr %3, i32 0, i32 1
  %17 = load ptr, ptr %16, align 8
  %18 = getelementptr inbounds %class.IdealLoopTree, ptr %17, i32 0, i32 1
  %19 = load ptr, ptr %18, align 8
  %20 = icmp ne ptr %19, null
  br i1 %20, label %21, label %27

21:                                               ; preds = %15
  %22 = getelementptr inbounds %class.LoopTreeIterator, ptr %3, i32 0, i32 1
  %23 = load ptr, ptr %22, align 8
  %24 = getelementptr inbounds %class.IdealLoopTree, ptr %23, i32 0, i32 1
  %25 = load ptr, ptr %24, align 8
  %26 = getelementptr inbounds %class.LoopTreeIterator, ptr %3, i32 0, i32 1
  store ptr %25, ptr %26, align 8
  br label %63

27:                                               ; preds = %15
  br label %28

28:                                               ; preds = %42, %27
  %29 = getelementptr inbounds %class.LoopTreeIterator, ptr %3, i32 0, i32 1
  %30 = load ptr, ptr %29, align 8
  %31 = getelementptr inbounds %class.LoopTreeIterator, ptr %3, i32 0, i32 0
  %32 = load ptr, ptr %31, align 8
  %33 = icmp ne ptr %30, %32
  br i1 %33, label %34, label %40

34:                                               ; preds = %28
  %35 = getelementptr inbounds %class.LoopTreeIterator, ptr %3, i32 0, i32 1
  %36 = load ptr, ptr %35, align 8
  %37 = getelementptr inbounds %class.IdealLoopTree, ptr %36, i32 0, i32 1
  %38 = load ptr, ptr %37, align 8
  %39 = icmp eq ptr %38, null
  br label %40

40:                                               ; preds = %34, %28
  %41 = phi i1 [ false, %28 ], [ %39, %34 ]
  br i1 %41, label %42, label %48

42:                                               ; preds = %40
  %43 = getelementptr inbounds %class.LoopTreeIterator, ptr %3, i32 0, i32 1
  %44 = load ptr, ptr %43, align 8
  %45 = getelementptr inbounds %class.IdealLoopTree, ptr %44, i32 0, i32 0
  %46 = load ptr, ptr %45, align 8
  %47 = getelementptr inbounds %class.LoopTreeIterator, ptr %3, i32 0, i32 1
  store ptr %46, ptr %47, align 8
  br label %28, !llvm.loop !72

48:                                               ; preds = %40
  %49 = getelementptr inbounds %class.LoopTreeIterator, ptr %3, i32 0, i32 1
  %50 = load ptr, ptr %49, align 8
  %51 = getelementptr inbounds %class.LoopTreeIterator, ptr %3, i32 0, i32 0
  %52 = load ptr, ptr %51, align 8
  %53 = icmp eq ptr %50, %52
  br i1 %53, label %54, label %56

54:                                               ; preds = %48
  %55 = getelementptr inbounds %class.LoopTreeIterator, ptr %3, i32 0, i32 1
  store ptr null, ptr %55, align 8
  br label %62

56:                                               ; preds = %48
  %57 = getelementptr inbounds %class.LoopTreeIterator, ptr %3, i32 0, i32 1
  %58 = load ptr, ptr %57, align 8
  %59 = getelementptr inbounds %class.IdealLoopTree, ptr %58, i32 0, i32 1
  %60 = load ptr, ptr %59, align 8
  %61 = getelementptr inbounds %class.LoopTreeIterator, ptr %3, i32 0, i32 1
  store ptr %60, ptr %61, align 8
  br label %62

62:                                               ; preds = %56, %54
  br label %63

63:                                               ; preds = %62, %21
  br label %64

64:                                               ; preds = %63, %9
  ret void
}

; Function Attrs: mustprogress nounwind uwtable
define hidden void @_ZN14PhaseIdealLoop53collect_useful_template_assertion_predicates_for_loopEP13IdealLoopTreeR16Unique_Node_List(ptr noundef %0, ptr noundef nonnull align 8 dereferenceable(68) %1) #1 align 2 {
  %3 = alloca ptr, align 8
  %4 = alloca ptr, align 8
  %5 = alloca ptr, align 8
  %6 = alloca %class.Predicates, align 8
  %7 = alloca ptr, align 8
  %8 = alloca ptr, align 8
  %9 = alloca ptr, align 8
  %10 = alloca ptr, align 8
  store ptr %0, ptr %3, align 8
  store ptr %1, ptr %4, align 8
  %11 = load ptr, ptr %3, align 8
  %12 = getelementptr inbounds %class.IdealLoopTree, ptr %11, i32 0, i32 3
  %13 = load ptr, ptr %12, align 8
  %14 = call noundef ptr @_ZNK4Node7as_LoopEv(ptr noundef nonnull align 8 dereferenceable(52) %13)
  %15 = load ptr, ptr %14, align 8
  %16 = getelementptr inbounds ptr, ptr %15, i64 24
  %17 = load ptr, ptr %16, align 8
  %18 = call noundef ptr %17(ptr noundef nonnull align 8 dereferenceable(72) %14, i32 noundef 1)
  %19 = call noundef ptr @_ZNK4Node2inEj(ptr noundef nonnull align 8 dereferenceable(52) %18, i32 noundef 1)
  store ptr %19, ptr %5, align 8
  %20 = load ptr, ptr %5, align 8
  call void @_ZN10PredicatesC2EP4Node(ptr noundef nonnull align 8 dereferenceable(136) %6, ptr noundef %20)
  %21 = load i8, ptr @UseProfiledLoopPredicate, align 1
  %22 = trunc i8 %21 to i1
  br i1 %22, label %23, label %33

23:                                               ; preds = %2
  %24 = call noundef ptr @_ZNK10Predicates29profiled_loop_predicate_blockEv(ptr noundef nonnull align 8 dereferenceable(136) %6)
  store ptr %24, ptr %7, align 8
  %25 = load ptr, ptr %7, align 8
  %26 = call noundef zeroext i1 @_ZNK14PredicateBlock19has_parse_predicateEv(ptr noundef nonnull align 8 dereferenceable(40) %25)
  br i1 %26, label %27, label %32

27:                                               ; preds = %23
  %28 = load ptr, ptr %7, align 8
  %29 = call noundef ptr @_ZNK14PredicateBlock28parse_predicate_success_projEv(ptr noundef nonnull align 8 dereferenceable(40) %28)
  store ptr %29, ptr %8, align 8
  %30 = load ptr, ptr %8, align 8
  %31 = load ptr, ptr %4, align 8
  call void @_ZN14PhaseIdealLoop24get_assertion_predicatesEP4NodeR16Unique_Node_Listb(ptr noundef %30, ptr noundef nonnull align 8 dereferenceable(68) %31, i1 noundef zeroext true)
  br label %32

32:                                               ; preds = %27, %23
  br label %33

33:                                               ; preds = %32, %2
  %34 = load i8, ptr @UseLoopPredicate, align 1
  %35 = trunc i8 %34 to i1
  br i1 %35, label %36, label %46

36:                                               ; preds = %33
  %37 = call noundef ptr @_ZNK10Predicates20loop_predicate_blockEv(ptr noundef nonnull align 8 dereferenceable(136) %6)
  store ptr %37, ptr %9, align 8
  %38 = load ptr, ptr %9, align 8
  %39 = call noundef zeroext i1 @_ZNK14PredicateBlock19has_parse_predicateEv(ptr noundef nonnull align 8 dereferenceable(40) %38)
  br i1 %39, label %40, label %45

40:                                               ; preds = %36
  %41 = load ptr, ptr %9, align 8
  %42 = call noundef ptr @_ZNK14PredicateBlock28parse_predicate_success_projEv(ptr noundef nonnull align 8 dereferenceable(40) %41)
  store ptr %42, ptr %10, align 8
  %43 = load ptr, ptr %10, align 8
  %44 = load ptr, ptr %4, align 8
  call void @_ZN14PhaseIdealLoop24get_assertion_predicatesEP4NodeR16Unique_Node_Listb(ptr noundef %43, ptr noundef nonnull align 8 dereferenceable(68) %44, i1 noundef zeroext true)
  br label %45

45:                                               ; preds = %40, %36
  br label %46

46:                                               ; preds = %45, %33
  ret void
}

; Function Attrs: mustprogress nounwind uwtable
define linkonce_odr hidden noundef ptr @_ZN16LoopTreeIterator7currentEv(ptr noundef nonnull align 8 dereferenceable(16) %0) #1 comdat align 2 {
  %2 = alloca ptr, align 8
  store ptr %0, ptr %2, align 8
  %3 = load ptr, ptr %2, align 8
  %4 = getelementptr inbounds %class.LoopTreeIterator, ptr %3, i32 0, i32 1
  %5 = load ptr, ptr %4, align 8
  ret ptr %5
}

; Function Attrs: mustprogress nounwind uwtable
define linkonce_odr hidden noundef zeroext i1 @_ZN16LoopTreeIterator4doneEv(ptr noundef nonnull align 8 dereferenceable(16) %0) #1 comdat align 2 {
  %2 = alloca ptr, align 8
  store ptr %0, ptr %2, align 8
  %3 = load ptr, ptr %2, align 8
  %4 = getelementptr inbounds %class.LoopTreeIterator, ptr %3, i32 0, i32 1
  %5 = load ptr, ptr %4, align 8
  %6 = icmp eq ptr %5, null
  ret i1 %6
}

; Function Attrs: mustprogress nounwind uwtable
define linkonce_odr hidden void @_ZN16LoopTreeIteratorC2EP13IdealLoopTree(ptr noundef nonnull align 8 dereferenceable(16) %0, ptr noundef %1) unnamed_addr #1 comdat align 2 {
  %3 = alloca ptr, align 8
  %4 = alloca ptr, align 8
  store ptr %0, ptr %3, align 8
  store ptr %1, ptr %4, align 8
  %5 = load ptr, ptr %3, align 8
  %6 = getelementptr inbounds %class.LoopTreeIterator, ptr %5, i32 0, i32 0
  %7 = load ptr, ptr %4, align 8
  store ptr %7, ptr %6, align 8
  %8 = getelementptr inbounds %class.LoopTreeIterator, ptr %5, i32 0, i32 1
  %9 = load ptr, ptr %4, align 8
  store ptr %9, ptr %8, align 8
  ret void
}

; Function Attrs: mustprogress nounwind uwtable
define hidden void @_ZN14PhaseIdealLoop44collect_useful_template_assertion_predicatesER16Unique_Node_List(ptr noundef nonnull align 8 dereferenceable(237) %0, ptr noundef nonnull align 8 dereferenceable(68) %1) #1 align 2 {
  %3 = alloca ptr, align 8
  %4 = alloca ptr, align 8
  %5 = alloca %class.LoopTreeIterator, align 8
  %6 = alloca ptr, align 8
  store ptr %0, ptr %3, align 8
  store ptr %1, ptr %4, align 8
  %7 = load ptr, ptr %3, align 8
  %8 = getelementptr inbounds %class.PhaseIdealLoop, ptr %7, i32 0, i32 3
  %9 = load ptr, ptr %8, align 8
  call void @_ZN16LoopTreeIteratorC2EP13IdealLoopTree(ptr noundef nonnull align 8 dereferenceable(16) %5, ptr noundef %9)
  br label %10

10:                                               ; preds = %21, %2
  %11 = call noundef zeroext i1 @_ZN16LoopTreeIterator4doneEv(ptr noundef nonnull align 8 dereferenceable(16) %5)
  %12 = xor i1 %11, true
  br i1 %12, label %13, label %22

13:                                               ; preds = %10
  %14 = call noundef ptr @_ZN16LoopTreeIterator7currentEv(ptr noundef nonnull align 8 dereferenceable(16) %5)
  store ptr %14, ptr %6, align 8
  %15 = load ptr, ptr %6, align 8
  %16 = call noundef zeroext i1 @_ZN13IdealLoopTree26can_apply_loop_predicationEv(ptr noundef nonnull align 8 dereferenceable(113) %15)
  br i1 %16, label %17, label %20

17:                                               ; preds = %13
  %18 = load ptr, ptr %6, align 8
  %19 = load ptr, ptr %4, align 8
  call void @_ZN14PhaseIdealLoop53collect_useful_template_assertion_predicates_for_loopEP13IdealLoopTreeR16Unique_Node_List(ptr noundef %18, ptr noundef nonnull align 8 dereferenceable(68) %19)
  br label %20

20:                                               ; preds = %17, %13
  br label %21

21:                                               ; preds = %20
  call void @_ZN16LoopTreeIterator4nextEv(ptr noundef nonnull align 8 dereferenceable(16) %5)
  br label %10, !llvm.loop !73

22:                                               ; preds = %10
  ret void
}