; Function Attrs: mustprogress nounwind uwtable
define hidden void @_ZN14PhaseIdealLoop44collect_useful_template_assertion_predicatesER16Unique_Node_List(ptr nocapture noundef nonnull readonly align 8 dereferenceable(237) %0, ptr noundef nonnull align 8 dereferenceable(68) %1) local_unnamed_addr #0 align 2 {
  %3 = alloca %class.Predicates, align 8
  %4 = getelementptr inbounds i8, ptr %0, i64 64
  %5 = load ptr, ptr %4, align 8
  %6 = icmp eq ptr %5, null
  br i1 %6, label %._crit_edge, label %.lr.ph

.lr.ph:                                           ; preds = %2
  %7 = getelementptr inbounds i8, ptr %3, i64 64
  %8 = getelementptr inbounds i8, ptr %3, i64 56
  %9 = getelementptr inbounds i8, ptr %3, i64 104
  %10 = getelementptr inbounds i8, ptr %3, i64 96
  br label %_ZN16LoopTreeIterator4nextEv.exit

_ZN16LoopTreeIterator4nextEv.exit:                ; preds = %_ZN16LoopTreeIterator4nextEv.exit.backedge, %.lr.ph
  %.sroa.2.07 = phi ptr [ %5, %.lr.ph ], [ %.sroa.2.07.be, %_ZN16LoopTreeIterator4nextEv.exit.backedge ]
  %11 = call noundef zeroext i1 @_ZN13IdealLoopTree26can_apply_loop_predicationEv(ptr noundef nonnull align 8 dereferenceable(113) %.sroa.2.07) #15
  br i1 %11, label %12, label %34

12:                                               ; preds = %_ZN16LoopTreeIterator4nextEv.exit
  call void @llvm.lifetime.start.p0(i64 136, ptr nonnull %3)
  %13 = getelementptr inbounds i8, ptr %.sroa.2.07, i64 24
  %14 = load ptr, ptr %13, align 8
  %15 = load ptr, ptr %14, align 8
  %16 = getelementptr inbounds i8, ptr %15, i64 192
  %17 = load ptr, ptr %16, align 8
  %18 = call noundef ptr %17(ptr noundef nonnull align 8 dereferenceable(72) %14, i32 noundef 1) #15
  %19 = getelementptr inbounds i8, ptr %18, i64 8
  %20 = load ptr, ptr %19, align 8
  %21 = getelementptr inbounds i8, ptr %20, i64 8
  %22 = load ptr, ptr %21, align 8
  call void @_ZN10PredicatesC2EP4Node(ptr noundef nonnull align 8 dereferenceable(136) %3, ptr noundef %22)
  %23 = load i8, ptr @UseProfiledLoopPredicate, align 1
  %24 = trunc i8 %23 to i1
  %25 = load ptr, ptr %7, align 8
  %.not.i = icmp ne ptr %25, null
  %or.cond.not.i = select i1 %24, i1 %.not.i, i1 false
  br i1 %or.cond.not.i, label %26, label %28

26:                                               ; preds = %12
  %27 = load ptr, ptr %8, align 8
  call void @_ZN14PhaseIdealLoop24get_assertion_predicatesEP4NodeR16Unique_Node_Listb(ptr noundef %27, ptr noundef nonnull align 8 dereferenceable(68) %1, i1 noundef zeroext true) #15
  br label %28

28:                                               ; preds = %26, %12
  %29 = load i8, ptr @UseLoopPredicate, align 1
  %30 = trunc i8 %29 to i1
  %31 = load ptr, ptr %9, align 8
  %.not10.i = icmp ne ptr %31, null
  %or.cond15.not.i = select i1 %30, i1 %.not10.i, i1 false
  br i1 %or.cond15.not.i, label %32, label %_ZN14PhaseIdealLoop53collect_useful_template_assertion_predicates_for_loopEP13IdealLoopTreeR16Unique_Node_List.exit

32:                                               ; preds = %28
  %33 = load ptr, ptr %10, align 8
  call void @_ZN14PhaseIdealLoop24get_assertion_predicatesEP4NodeR16Unique_Node_Listb(ptr noundef %33, ptr noundef nonnull align 8 dereferenceable(68) %1, i1 noundef zeroext true) #15
  br label %_ZN14PhaseIdealLoop53collect_useful_template_assertion_predicates_for_loopEP13IdealLoopTreeR16Unique_Node_List.exit

_ZN14PhaseIdealLoop53collect_useful_template_assertion_predicates_for_loopEP13IdealLoopTreeR16Unique_Node_List.exit: ; preds = %28, %32
  call void @llvm.lifetime.end.p0(i64 136, ptr nonnull %3)
  br label %34

34:                                               ; preds = %_ZN16LoopTreeIterator4nextEv.exit, %_ZN14PhaseIdealLoop53collect_useful_template_assertion_predicates_for_loopEP13IdealLoopTreeR16Unique_Node_List.exit
  %35 = getelementptr inbounds i8, ptr %.sroa.2.07, i64 16
  %36 = load ptr, ptr %35, align 8
  %.not.i4 = icmp eq ptr %36, null
  br i1 %.not.i4, label %37, label %_ZN16LoopTreeIterator4nextEv.exit.backedge

_ZN16LoopTreeIterator4nextEv.exit.backedge:       ; preds = %.lr.ph.i, %34, %37
  %.sroa.2.07.be = phi ptr [ %36, %34 ], [ %39, %37 ], [ %42, %.lr.ph.i ]
  br label %_ZN16LoopTreeIterator4nextEv.exit, !llvm.loop !79

37:                                               ; preds = %34
  %38 = getelementptr inbounds i8, ptr %.sroa.2.07, i64 8
  %39 = load ptr, ptr %38, align 8
  %.not4.i = icmp eq ptr %39, null
  br i1 %.not4.i, label %.preheader.i, label %_ZN16LoopTreeIterator4nextEv.exit.backedge

.preheader.i:                                     ; preds = %37
  %.not57.i = icmp eq ptr %.sroa.2.07, %5
  br i1 %.not57.i, label %._crit_edge, label %.lr.ph.i

.lr.ph.i:                                         ; preds = %.preheader.i, %44
  %40 = phi ptr [ %45, %44 ], [ %.sroa.2.07, %.preheader.i ]
  %41 = getelementptr inbounds i8, ptr %40, i64 8
  %42 = load ptr, ptr %41, align 8
  %43 = icmp eq ptr %42, null
  br i1 %43, label %44, label %_ZN16LoopTreeIterator4nextEv.exit.backedge, !llvm.loop !79

44:                                               ; preds = %.lr.ph.i
  %45 = load ptr, ptr %40, align 8
  %.not5.i = icmp eq ptr %45, %5
  br i1 %.not5.i, label %._crit_edge, label %.lr.ph.i, !llvm.loop !75

._crit_edge:                                      ; preds = %.preheader.i, %44, %2
  ret void
}